target datalayout = "e-m:e-p270:32:32-p271:32:32-p272:64:64-i64:64-i128:128-f80:128-n8:16:32:64-S128"
target triple = "x86_64-pc-linux-gnu"

%struct.LOCKTAG = type { i32, i32, i32, i16, i8, i8 }
%struct.LOCALLOCKTAG = type { %struct.LOCKTAG, i32 }
%struct.LOCALLOCK = type { %struct.LOCALLOCKTAG, i32, ptr, ptr, i64, i32, i32, ptr, i8, i8 }
%struct.LOCALLOCKOWNER = type { ptr, i64 }

; Function Attrs: inlinehint nounwind uwtable
define internal void @CheckAndSetLockHeld(ptr noundef %0, i1 noundef zeroext %1) #6 {
  %3 = alloca ptr, align 8
  %4 = alloca i8, align 1
  store ptr %0, ptr %3, align 8
  %5 = zext i1 %1 to i8
  store i8 %5, ptr %4, align 1
  ret void
}

; Function Attrs: nounwind uwtable
define internal void @GrantLockLocal(ptr noundef %0, ptr noundef %1) #0 {
  %3 = alloca ptr, align 8
  %4 = alloca ptr, align 8
  %5 = alloca ptr, align 8
  %6 = alloca i32, align 4
  %7 = alloca i32, align 4
  store ptr %0, ptr %3, align 8
  store ptr %1, ptr %4, align 8
  call void @llvm.lifetime.start.p0(i64 8, ptr %5) #9
  %8 = load ptr, ptr %3, align 8
  %9 = getelementptr inbounds nuw %struct.LOCALLOCK, ptr %8, i32 0, i32 7
  %10 = load ptr, ptr %9, align 8
  store ptr %10, ptr %5, align 8
  call void @llvm.lifetime.start.p0(i64 4, ptr %6) #9
  %11 = load ptr, ptr %3, align 8
  %12 = getelementptr inbounds nuw %struct.LOCALLOCK, ptr %11, i32 0, i32 4
  %13 = load i64, ptr %12, align 8
  %14 = add i64 %13, 1
  store i64 %14, ptr %12, align 8
  store i32 0, ptr %6, align 4
  br label %15

15:                                               ; preds = %39, %2
  %16 = load i32, ptr %6, align 4
  %17 = load ptr, ptr %3, align 8
  %18 = getelementptr inbounds nuw %struct.LOCALLOCK, ptr %17, i32 0, i32 5
  %19 = load i32, ptr %18, align 8
  %20 = icmp slt i32 %16, %19
  br i1 %20, label %21, label %42

21:                                               ; preds = %15
  %22 = load ptr, ptr %5, align 8
  %23 = load i32, ptr %6, align 4
  %24 = sext i32 %23 to i64
  %25 = getelementptr inbounds %struct.LOCALLOCKOWNER, ptr %22, i64 %24
  %26 = getelementptr inbounds nuw %struct.LOCALLOCKOWNER, ptr %25, i32 0, i32 0
  %27 = load ptr, ptr %26, align 8
  %28 = load ptr, ptr %4, align 8
  %29 = icmp eq ptr %27, %28
  br i1 %29, label %30, label %38

30:                                               ; preds = %21
  %31 = load ptr, ptr %5, align 8
  %32 = load i32, ptr %6, align 4
  %33 = sext i32 %32 to i64
  %34 = getelementptr inbounds %struct.LOCALLOCKOWNER, ptr %31, i64 %33
  %35 = getelementptr inbounds nuw %struct.LOCALLOCKOWNER, ptr %34, i32 0, i32 1
  %36 = load i64, ptr %35, align 8
  %37 = add i64 %36, 1
  store i64 %37, ptr %35, align 8
  store i32 1, ptr %7, align 4
  br label %65

38:                                               ; preds = %21
  br label %39

39:                                               ; preds = %38
  %40 = load i32, ptr %6, align 4
  %41 = add i32 %40, 1
  store i32 %41, ptr %6, align 4
  br label %15, !llvm.loop !14

42:                                               ; preds = %15
  %43 = load ptr, ptr %4, align 8
  %44 = load ptr, ptr %5, align 8
  %45 = load i32, ptr %6, align 4
  %46 = sext i32 %45 to i64
  %47 = getelementptr inbounds %struct.LOCALLOCKOWNER, ptr %44, i64 %46
  %48 = getelementptr inbounds nuw %struct.LOCALLOCKOWNER, ptr %47, i32 0, i32 0
  store ptr %43, ptr %48, align 8
  %49 = load ptr, ptr %5, align 8
  %50 = load i32, ptr %6, align 4
  %51 = sext i32 %50 to i64
  %52 = getelementptr inbounds %struct.LOCALLOCKOWNER, ptr %49, i64 %51
  %53 = getelementptr inbounds nuw %struct.LOCALLOCKOWNER, ptr %52, i32 0, i32 1
  store i64 1, ptr %53, align 8
  %54 = load ptr, ptr %3, align 8
  %55 = getelementptr inbounds nuw %struct.LOCALLOCK, ptr %54, i32 0, i32 5
  %56 = load i32, ptr %55, align 8
  %57 = add i32 %56, 1
  store i32 %57, ptr %55, align 8
  %58 = load ptr, ptr %4, align 8
  %59 = icmp ne ptr %58, null
  br i1 %59, label %60, label %63

60:                                               ; preds = %42
  %61 = load ptr, ptr %4, align 8
  %62 = load ptr, ptr %3, align 8
  call void @ResourceOwnerRememberLock(ptr noundef %61, ptr noundef %62)
  br label %63

63:                                               ; preds = %60, %42
  %64 = load ptr, ptr %3, align 8
  call void @CheckAndSetLockHeld(ptr noundef %64, i1 noundef zeroext true)
  store i32 0, ptr %7, align 4
  br label %65

65:                                               ; preds = %63, %30
  call void @llvm.lifetime.end.p0(i64 4, ptr %6) #9
  call void @llvm.lifetime.end.p0(i64 8, ptr %5) #9
  %66 = load i32, ptr %7, align 4
  switch i32 %66, label %68 [
    i32 0, label %67
    i32 1, label %67
  ]

67:                                               ; preds = %65, %65
  ret void

68:                                               ; preds = %65
  unreachable
}