; Function Attrs: nounwind uwtable
define internal fastcc void @GrantLockLocal(ptr noundef %0, ptr noundef %1) unnamed_addr #0 {
  %3 = getelementptr inbounds nuw i8, ptr %0, i64 56
  %4 = load ptr, ptr %3, align 8
  %5 = getelementptr inbounds nuw i8, ptr %0, i64 40
  %6 = load i64, ptr %5, align 8
  %7 = add i64 %6, 1
  store i64 %7, ptr %5, align 8
  %8 = getelementptr inbounds nuw i8, ptr %0, i64 48
  %9 = load i32, ptr %8, align 8
  %10 = icmp sgt i32 %9, 0
  br i1 %10, label %.lr.ph.preheader, label %._crit_edge

.lr.ph.preheader:                                 ; preds = %2
  %wide.trip.count = zext nneg i32 %9 to i64
  br label %.lr.ph

.lr.ph:                                           ; preds = %.lr.ph.preheader, %18
  %indvars.iv = phi i64 [ 0, %.lr.ph.preheader ], [ %indvars.iv.next, %18 ]
  %11 = getelementptr inbounds nuw %struct.LOCALLOCKOWNER, ptr %4, i64 %indvars.iv
  %12 = load ptr, ptr %11, align 8
  %13 = icmp eq ptr %12, %1
  br i1 %13, label %14, label %18

14:                                               ; preds = %.lr.ph
  %15 = getelementptr inbounds nuw i8, ptr %11, i64 8
  %16 = load i64, ptr %15, align 8
  %17 = add i64 %16, 1
  store i64 %17, ptr %15, align 8
  br label %25

18:                                               ; preds = %.lr.ph
  %indvars.iv.next = add nuw nsw i64 %indvars.iv, 1
  %exitcond.not = icmp eq i64 %indvars.iv.next, %wide.trip.count
  br i1 %exitcond.not, label %._crit_edge.loopexit, label %.lr.ph, !llvm.loop !12

._crit_edge.loopexit:                             ; preds = %18
  %19 = zext nneg i32 %9 to i64
  br label %._crit_edge

._crit_edge:                                      ; preds = %._crit_edge.loopexit, %2
  %.0.lcssa = phi i64 [ 0, %2 ], [ %19, %._crit_edge.loopexit ]
  %20 = getelementptr inbounds nuw %struct.LOCALLOCKOWNER, ptr %4, i64 %.0.lcssa
  store ptr %1, ptr %20, align 8
  %21 = getelementptr inbounds nuw i8, ptr %20, i64 8
  store i64 1, ptr %21, align 8
  %22 = load i32, ptr %8, align 8
  %23 = add i32 %22, 1
  store i32 %23, ptr %8, align 8
  %.not = icmp eq ptr %1, null
  br i1 %.not, label %25, label %24

24:                                               ; preds = %._crit_edge
  tail call void @ResourceOwnerRememberLock(ptr noundef nonnull %1, ptr noundef nonnull %0) #17
  br label %25

25:                                               ; preds = %._crit_edge, %24, %14
  ret void
}